; Function Attrs: nounwind uwtable
define internal noundef i32 @transform_string_values_object_end(ptr noundef readonly captures(none) %0) #0 {
  %2 = getelementptr inbounds nuw i8, ptr %0, i64 8
  %3 = load ptr, ptr %2, align 8
  %4 = getelementptr inbounds nuw i8, ptr %3, i64 8
  %5 = load i32, ptr %4, align 8
  %6 = add i32 %5, 1
  %7 = getelementptr inbounds nuw i8, ptr %3, i64 12
  %8 = load i32, ptr %7, align 4
  %.not = icmp slt i32 %6, %8
  br i1 %.not, label %10, label %9

9:                                                ; preds = %1
  tail call void @appendStringInfoChar(ptr noundef nonnull %3, i8 noundef signext 125) #15
  br label %21

10:                                               ; preds = %1
  %11 = load ptr, ptr %3, align 8
  %12 = sext i32 %5 to i64
  %13 = getelementptr inbounds i8, ptr %11, i64 %12
  store i8 125, ptr %13, align 1
  %14 = load ptr, ptr %2, align 8
  %15 = load ptr, ptr %14, align 8
  %16 = getelementptr inbounds nuw i8, ptr %14, i64 8
  %17 = load i32, ptr %16, align 8
  %18 = add i32 %17, 1
  store i32 %18, ptr %16, align 8
  %19 = sext i32 %18 to i64
  %20 = getelementptr inbounds i8, ptr %15, i64 %19
  store i8 0, ptr %20, align 1
  br label %21

21:                                               ; preds = %10, %9
  ret i32 0
}